
result.elf:     file format elf32-littleriscv


Disassembly of section .text:

00000000 <_start>:
   0:	00003197          	auipc	gp,0x3
   4:	80018193          	add	gp,gp,-2048 # 2800 <_gbl_ptr>
   8:	00003117          	auipc	sp,0x3
   c:	5f810113          	add	sp,sp,1528 # 3600 <_stack_ptr>
  10:	00002297          	auipc	t0,0x2
  14:	ff028293          	add	t0,t0,-16 # 2000 <_bss_end>
  18:	00002317          	auipc	t1,0x2
  1c:	fe830313          	add	t1,t1,-24 # 2000 <_bss_end>

00000020 <_bss_init_loop>:
  20:	00534863          	blt	t1,t0,30 <_irq_config>
  24:	0002a023          	sw	zero,0(t0)
  28:	00428293          	add	t0,t0,4
  2c:	ff5ff06f          	j	20 <_bss_init_loop>

00000030 <_irq_config>:
  30:	05c00293          	li	t0,92
  34:	fff00313          	li	t1,-1
  38:	00004397          	auipc	t2,0x4
  3c:	fc838393          	add	t2,t2,-56 # 4000 <_trap_stack_ptr>
  40:	30529073          	csrw	mtvec,t0
  44:	30431073          	csrw	mie,t1
  48:	34039073          	csrw	mscratch,t2

0000004c <_main_call>:
  4c:	00000513          	li	a0,0
  50:	00000593          	li	a1,0
  54:	170000ef          	jal	1c4 <main>

00000058 <_endless_loop>:
  58:	0000006f          	j	58 <_endless_loop>

0000005c <_int_handler>:
  5c:	34011173          	csrrw	sp,mscratch,sp
  60:	fb010113          	add	sp,sp,-80
  64:	00112223          	sw	ra,4(sp)
  68:	00003097          	auipc	ra,0x3
  6c:	59808093          	add	ra,ra,1432 # 3600 <_stack_ptr>
  70:	fe1144e3          	blt	sp,ra,58 <_endless_loop>
  74:	00512623          	sw	t0,12(sp)
  78:	00612823          	sw	t1,16(sp)
  7c:	00712a23          	sw	t2,20(sp)
  80:	00a12c23          	sw	a0,24(sp)
  84:	00b12e23          	sw	a1,28(sp)
  88:	02c12023          	sw	a2,32(sp)
  8c:	02d12223          	sw	a3,36(sp)
  90:	02e12423          	sw	a4,40(sp)
  94:	02f12623          	sw	a5,44(sp)
  98:	03012823          	sw	a6,48(sp)
  9c:	03112a23          	sw	a7,52(sp)
  a0:	03c12c23          	sw	t3,56(sp)
  a4:	03d12e23          	sw	t4,60(sp)
  a8:	05e12023          	sw	t5,64(sp)
  ac:	05f12223          	sw	t6,68(sp)
  b0:	340022f3          	csrr	t0,mscratch
  b4:	34102373          	csrr	t1,mepc
  b8:	34202573          	csrr	a0,mcause
  bc:	00512423          	sw	t0,8(sp)
  c0:	04612423          	sw	t1,72(sp)
  c4:	04a12623          	sw	a0,76(sp)
  c8:	260000ef          	jal	328 <int_handler>
  cc:	00010513          	mv	a0,sp
  d0:	04852303          	lw	t1,72(a0)
  d4:	05010113          	add	sp,sp,80
  d8:	34011073          	csrw	mscratch,sp
  dc:	34131073          	csrw	mepc,t1
  e0:	00452083          	lw	ra,4(a0)
  e4:	00852103          	lw	sp,8(a0)
  e8:	00c52283          	lw	t0,12(a0)
  ec:	01052303          	lw	t1,16(a0)
  f0:	01452383          	lw	t2,20(a0)
  f4:	01c52583          	lw	a1,28(a0)
  f8:	02052603          	lw	a2,32(a0)
  fc:	02452683          	lw	a3,36(a0)
 100:	02852703          	lw	a4,40(a0)
 104:	02c52783          	lw	a5,44(a0)
 108:	03052803          	lw	a6,48(a0)
 10c:	03452883          	lw	a7,52(a0)
 110:	03852e03          	lw	t3,56(a0)
 114:	03c52e83          	lw	t4,60(a0)
 118:	04052f03          	lw	t5,64(a0)
 11c:	04452f83          	lw	t6,68(a0)
 120:	02852503          	lw	a0,40(a0)
 124:	30200073          	mret

00000128 <Fibanachi>:
 128:	fd010113          	add	sp,sp,-48
 12c:	02812623          	sw	s0,44(sp)
 130:	03010413          	add	s0,sp,48
 134:	fca42e23          	sw	a0,-36(s0)
 138:	fe042623          	sw	zero,-20(s0)
 13c:	00100793          	li	a5,1
 140:	fef42423          	sw	a5,-24(s0)
 144:	fe042223          	sw	zero,-28(s0)
 148:	00100793          	li	a5,1
 14c:	fef42023          	sw	a5,-32(s0)
 150:	fdc42783          	lw	a5,-36(s0)
 154:	00079663          	bnez	a5,160 <Fibanachi+0x38>
 158:	fe042623          	sw	zero,-20(s0)
 15c:	0540006f          	j	1b0 <Fibanachi+0x88>
 160:	fdc42703          	lw	a4,-36(s0)
 164:	00100793          	li	a5,1
 168:	02f71e63          	bne	a4,a5,1a4 <Fibanachi+0x7c>
 16c:	00100793          	li	a5,1
 170:	fef42623          	sw	a5,-20(s0)
 174:	03c0006f          	j	1b0 <Fibanachi+0x88>
 178:	fe842703          	lw	a4,-24(s0)
 17c:	fe442783          	lw	a5,-28(s0)
 180:	00f707b3          	add	a5,a4,a5
 184:	fef42623          	sw	a5,-20(s0)
 188:	fe842783          	lw	a5,-24(s0)
 18c:	fef42223          	sw	a5,-28(s0)
 190:	fec42783          	lw	a5,-20(s0)
 194:	fef42423          	sw	a5,-24(s0)
 198:	fe042783          	lw	a5,-32(s0)
 19c:	00178793          	add	a5,a5,1
 1a0:	fef42023          	sw	a5,-32(s0)
 1a4:	fe042703          	lw	a4,-32(s0)
 1a8:	fdc42783          	lw	a5,-36(s0)
 1ac:	fcf746e3          	blt	a4,a5,178 <Fibanachi+0x50>
 1b0:	fec42783          	lw	a5,-20(s0)
 1b4:	00078513          	mv	a0,a5
 1b8:	02c12403          	lw	s0,44(sp)
 1bc:	03010113          	add	sp,sp,48
 1c0:	00008067          	ret

000001c4 <main>:
 1c4:	fd010113          	add	sp,sp,-48
 1c8:	02112623          	sw	ra,44(sp)
 1cc:	02812423          	sw	s0,40(sp)
 1d0:	03010413          	add	s0,sp,48
 1d4:	fca42e23          	sw	a0,-36(s0)
 1d8:	fcb42c23          	sw	a1,-40(s0)
 1dc:	000017b7          	lui	a5,0x1
 1e0:	0007a223          	sw	zero,4(a5) # 1004 <_text_size+0x4>
 1e4:	000017b7          	lui	a5,0x1
 1e8:	0007a423          	sw	zero,8(a5) # 1008 <_text_size+0x8>
 1ec:	000017b7          	lui	a5,0x1
 1f0:	0007a023          	sw	zero,0(a5) # 1000 <_text_size>
 1f4:	fe042423          	sw	zero,-24(s0)
 1f8:	050007b7          	lui	a5,0x5000
 1fc:	0001c737          	lui	a4,0x1c
 200:	20070713          	add	a4,a4,512 # 1c200 <_trap_stack_ptr+0x18200>
 204:	00e7a623          	sw	a4,12(a5) # 500000c <_trap_stack_ptr+0x4ffc00c>
 208:	060007b7          	lui	a5,0x6000
 20c:	0001c737          	lui	a4,0x1c
 210:	20070713          	add	a4,a4,512 # 1c200 <_trap_stack_ptr+0x18200>
 214:	00e7a623          	sw	a4,12(a5) # 600000c <_trap_stack_ptr+0x5ffc00c>
 218:	000017b7          	lui	a5,0x1
 21c:	0007a703          	lw	a4,0(a5) # 1000 <_text_size>
 220:	00200793          	li	a5,2
 224:	fef71ae3          	bne	a4,a5,218 <main+0x54>
 228:	000017b7          	lui	a5,0x1
 22c:	0007a023          	sw	zero,0(a5) # 1000 <_text_size>
 230:	000017b7          	lui	a5,0x1
 234:	0047a783          	lw	a5,4(a5) # 1004 <_text_size+0x4>
 238:	00078513          	mv	a0,a5
 23c:	eedff0ef          	jal	128 <Fibanachi>
 240:	fea42423          	sw	a0,-24(s0)
 244:	000017b7          	lui	a5,0x1
 248:	0007a223          	sw	zero,4(a5) # 1004 <_text_size+0x4>
 24c:	000017b7          	lui	a5,0x1
 250:	0007a423          	sw	zero,8(a5) # 1008 <_text_size+0x8>
 254:	00300793          	li	a5,3
 258:	fef42623          	sw	a5,-20(s0)
 25c:	0bc0006f          	j	318 <main+0x154>
 260:	fec42703          	lw	a4,-20(s0)
 264:	00300793          	li	a5,3
 268:	02f71263          	bne	a4,a5,28c <main+0xc8>
 26c:	fe842783          	lw	a5,-24(s0)
 270:	3e800593          	li	a1,1000
 274:	00078513          	mv	a0,a5
 278:	2b0000ef          	jal	528 <__divsi3>
 27c:	00050793          	mv	a5,a0
 280:	03078713          	add	a4,a5,48
 284:	060007b7          	lui	a5,0x6000
 288:	00e7a023          	sw	a4,0(a5) # 6000000 <_trap_stack_ptr+0x5ffc000>
 28c:	fec42703          	lw	a4,-20(s0)
 290:	00200793          	li	a5,2
 294:	02f71263          	bne	a4,a5,2b8 <main+0xf4>
 298:	fe842783          	lw	a5,-24(s0)
 29c:	06400593          	li	a1,100
 2a0:	00078513          	mv	a0,a5
 2a4:	284000ef          	jal	528 <__divsi3>
 2a8:	00050793          	mv	a5,a0
 2ac:	03078713          	add	a4,a5,48
 2b0:	060007b7          	lui	a5,0x6000
 2b4:	00e7a023          	sw	a4,0(a5) # 6000000 <_trap_stack_ptr+0x5ffc000>
 2b8:	fec42703          	lw	a4,-20(s0)
 2bc:	00100793          	li	a5,1
 2c0:	02f71263          	bne	a4,a5,2e4 <main+0x120>
 2c4:	fe842783          	lw	a5,-24(s0)
 2c8:	00a00593          	li	a1,10
 2cc:	00078513          	mv	a0,a5
 2d0:	258000ef          	jal	528 <__divsi3>
 2d4:	00050793          	mv	a5,a0
 2d8:	03078713          	add	a4,a5,48
 2dc:	060007b7          	lui	a5,0x6000
 2e0:	00e7a023          	sw	a4,0(a5) # 6000000 <_trap_stack_ptr+0x5ffc000>
 2e4:	fec42783          	lw	a5,-20(s0)
 2e8:	02079263          	bnez	a5,30c <main+0x148>
 2ec:	fe842783          	lw	a5,-24(s0)
 2f0:	00a00593          	li	a1,10
 2f4:	00078513          	mv	a0,a5
 2f8:	2b4000ef          	jal	5ac <__modsi3>
 2fc:	00050793          	mv	a5,a0
 300:	03078713          	add	a4,a5,48
 304:	060007b7          	lui	a5,0x6000
 308:	00e7a023          	sw	a4,0(a5) # 6000000 <_trap_stack_ptr+0x5ffc000>
 30c:	fec42783          	lw	a5,-20(s0)
 310:	fff78793          	add	a5,a5,-1
 314:	fef42623          	sw	a5,-20(s0)
 318:	fec42703          	lw	a4,-20(s0)
 31c:	fff00793          	li	a5,-1
 320:	f4f710e3          	bne	a4,a5,260 <main+0x9c>
 324:	ef5ff06f          	j	218 <main+0x54>

00000328 <int_handler>:
 328:	ff010113          	add	sp,sp,-16
 32c:	00812623          	sw	s0,12(sp)
 330:	01010413          	add	s0,sp,16
 334:	050007b7          	lui	a5,0x5000
 338:	0007a703          	lw	a4,0(a5) # 5000000 <_trap_stack_ptr+0x4ffc000>
 33c:	07300793          	li	a5,115
 340:	02f71463          	bne	a4,a5,368 <int_handler+0x40>
 344:	05000737          	lui	a4,0x5000
 348:	060007b7          	lui	a5,0x6000
 34c:	00072703          	lw	a4,0(a4) # 5000000 <_trap_stack_ptr+0x4ffc000>
 350:	00e7a023          	sw	a4,0(a5) # 6000000 <_trap_stack_ptr+0x5ffc000>
 354:	000017b7          	lui	a5,0x1
 358:	0007a703          	lw	a4,0(a5) # 1000 <_text_size>
 35c:	00170713          	add	a4,a4,1
 360:	00e7a023          	sw	a4,0(a5)
 364:	1b40006f          	j	518 <_stack_size+0x18>
 368:	000017b7          	lui	a5,0x1
 36c:	0007a703          	lw	a4,0(a5) # 1000 <_text_size>
 370:	00100793          	li	a5,1
 374:	1af71263          	bne	a4,a5,518 <_stack_size+0x18>
 378:	000017b7          	lui	a5,0x1
 37c:	0087a783          	lw	a5,8(a5) # 1008 <_text_size+0x8>
 380:	00300713          	li	a4,3
 384:	14e78863          	beq	a5,a4,4d4 <int_handler+0x1ac>
 388:	00300713          	li	a4,3
 38c:	18f74663          	blt	a4,a5,518 <_stack_size+0x18>
 390:	00200713          	li	a4,2
 394:	0ee78663          	beq	a5,a4,480 <int_handler+0x158>
 398:	00200713          	li	a4,2
 39c:	16f74e63          	blt	a4,a5,518 <_stack_size+0x18>
 3a0:	00078863          	beqz	a5,3b0 <int_handler+0x88>
 3a4:	00100713          	li	a4,1
 3a8:	06e78863          	beq	a5,a4,418 <int_handler+0xf0>
 3ac:	16c0006f          	j	518 <_stack_size+0x18>
 3b0:	050007b7          	lui	a5,0x5000
 3b4:	0007a703          	lw	a4,0(a5) # 5000000 <_trap_stack_ptr+0x4ffc000>
 3b8:	00070793          	mv	a5,a4
 3bc:	00579793          	sll	a5,a5,0x5
 3c0:	40e787b3          	sub	a5,a5,a4
 3c4:	00279793          	sll	a5,a5,0x2
 3c8:	00e787b3          	add	a5,a5,a4
 3cc:	00379793          	sll	a5,a5,0x3
 3d0:	00078713          	mv	a4,a5
 3d4:	ffff47b7          	lui	a5,0xffff4
 3d8:	48078793          	add	a5,a5,1152 # ffff4480 <_trap_stack_ptr+0xffff0480>
 3dc:	00f707b3          	add	a5,a4,a5
 3e0:	00001737          	lui	a4,0x1
 3e4:	00472703          	lw	a4,4(a4) # 1004 <_text_size+0x4>
 3e8:	00e78733          	add	a4,a5,a4
 3ec:	000017b7          	lui	a5,0x1
 3f0:	00e7a223          	sw	a4,4(a5) # 1004 <_text_size+0x4>
 3f4:	05000737          	lui	a4,0x5000
 3f8:	060007b7          	lui	a5,0x6000
 3fc:	00072703          	lw	a4,0(a4) # 5000000 <_trap_stack_ptr+0x4ffc000>
 400:	00e7a023          	sw	a4,0(a5) # 6000000 <_trap_stack_ptr+0x5ffc000>
 404:	000017b7          	lui	a5,0x1
 408:	0087a703          	lw	a4,8(a5) # 1008 <_text_size+0x8>
 40c:	00170713          	add	a4,a4,1
 410:	00e7a423          	sw	a4,8(a5)
 414:	1040006f          	j	518 <_stack_size+0x18>
 418:	050007b7          	lui	a5,0x5000
 41c:	0007a703          	lw	a4,0(a5) # 5000000 <_trap_stack_ptr+0x4ffc000>
 420:	00070793          	mv	a5,a4
 424:	00179793          	sll	a5,a5,0x1
 428:	00e787b3          	add	a5,a5,a4
 42c:	00379793          	sll	a5,a5,0x3
 430:	00e787b3          	add	a5,a5,a4
 434:	00279793          	sll	a5,a5,0x2
 438:	00078713          	mv	a4,a5
 43c:	fffff7b7          	lui	a5,0xfffff
 440:	d4078793          	add	a5,a5,-704 # ffffed40 <_trap_stack_ptr+0xffffad40>
 444:	00f707b3          	add	a5,a4,a5
 448:	00001737          	lui	a4,0x1
 44c:	00472703          	lw	a4,4(a4) # 1004 <_text_size+0x4>
 450:	00e78733          	add	a4,a5,a4
 454:	000017b7          	lui	a5,0x1
 458:	00e7a223          	sw	a4,4(a5) # 1004 <_text_size+0x4>
 45c:	05000737          	lui	a4,0x5000
 460:	060007b7          	lui	a5,0x6000
 464:	00072703          	lw	a4,0(a4) # 5000000 <_trap_stack_ptr+0x4ffc000>
 468:	00e7a023          	sw	a4,0(a5) # 6000000 <_trap_stack_ptr+0x5ffc000>
 46c:	000017b7          	lui	a5,0x1
 470:	0087a703          	lw	a4,8(a5) # 1008 <_text_size+0x8>
 474:	00170713          	add	a4,a4,1
 478:	00e7a423          	sw	a4,8(a5)
 47c:	09c0006f          	j	518 <_stack_size+0x18>
 480:	050007b7          	lui	a5,0x5000
 484:	0007a703          	lw	a4,0(a5) # 5000000 <_trap_stack_ptr+0x4ffc000>
 488:	00070793          	mv	a5,a4
 48c:	00279793          	sll	a5,a5,0x2
 490:	00e787b3          	add	a5,a5,a4
 494:	00179793          	sll	a5,a5,0x1
 498:	e2078793          	add	a5,a5,-480
 49c:	00001737          	lui	a4,0x1
 4a0:	00472703          	lw	a4,4(a4) # 1004 <_text_size+0x4>
 4a4:	00e78733          	add	a4,a5,a4
 4a8:	000017b7          	lui	a5,0x1
 4ac:	00e7a223          	sw	a4,4(a5) # 1004 <_text_size+0x4>
 4b0:	05000737          	lui	a4,0x5000
 4b4:	060007b7          	lui	a5,0x6000
 4b8:	00072703          	lw	a4,0(a4) # 5000000 <_trap_stack_ptr+0x4ffc000>
 4bc:	00e7a023          	sw	a4,0(a5) # 6000000 <_trap_stack_ptr+0x5ffc000>
 4c0:	000017b7          	lui	a5,0x1
 4c4:	0087a703          	lw	a4,8(a5) # 1008 <_text_size+0x8>
 4c8:	00170713          	add	a4,a4,1
 4cc:	00e7a423          	sw	a4,8(a5)
 4d0:	0480006f          	j	518 <_stack_size+0x18>
 4d4:	050007b7          	lui	a5,0x5000
 4d8:	0007a783          	lw	a5,0(a5) # 5000000 <_trap_stack_ptr+0x4ffc000>
 4dc:	fd078793          	add	a5,a5,-48
 4e0:	00001737          	lui	a4,0x1
 4e4:	00472703          	lw	a4,4(a4) # 1004 <_text_size+0x4>
 4e8:	00e78733          	add	a4,a5,a4
 4ec:	000017b7          	lui	a5,0x1
 4f0:	00e7a223          	sw	a4,4(a5) # 1004 <_text_size+0x4>
 4f4:	05000737          	lui	a4,0x5000
 4f8:	060007b7          	lui	a5,0x6000
 4fc:	00072703          	lw	a4,0(a4) # 5000000 <_trap_stack_ptr+0x4ffc000>
 500:	00e7a023          	sw	a4,0(a5) # 6000000 <_trap_stack_ptr+0x5ffc000>
 504:	000017b7          	lui	a5,0x1
 508:	0087a703          	lw	a4,8(a5) # 1008 <_text_size+0x8>
 50c:	00170713          	add	a4,a4,1
 510:	00e7a423          	sw	a4,8(a5)
 514:	00000013          	nop
 518:	00000013          	nop
 51c:	00c12403          	lw	s0,12(sp)
 520:	01010113          	add	sp,sp,16
 524:	00008067          	ret

00000528 <__divsi3>:
 528:	06054063          	bltz	a0,588 <__umodsi3+0x10>
 52c:	0605c663          	bltz	a1,598 <__umodsi3+0x20>

00000530 <__hidden___udivsi3>:
 530:	00058613          	mv	a2,a1
 534:	00050593          	mv	a1,a0
 538:	fff00513          	li	a0,-1
 53c:	02060c63          	beqz	a2,574 <__hidden___udivsi3+0x44>
 540:	00100693          	li	a3,1
 544:	00b67a63          	bgeu	a2,a1,558 <__hidden___udivsi3+0x28>
 548:	00c05863          	blez	a2,558 <__hidden___udivsi3+0x28>
 54c:	00161613          	sll	a2,a2,0x1
 550:	00169693          	sll	a3,a3,0x1
 554:	feb66ae3          	bltu	a2,a1,548 <__hidden___udivsi3+0x18>
 558:	00000513          	li	a0,0
 55c:	00c5e663          	bltu	a1,a2,568 <__hidden___udivsi3+0x38>
 560:	40c585b3          	sub	a1,a1,a2
 564:	00d56533          	or	a0,a0,a3
 568:	0016d693          	srl	a3,a3,0x1
 56c:	00165613          	srl	a2,a2,0x1
 570:	fe0696e3          	bnez	a3,55c <__hidden___udivsi3+0x2c>
 574:	00008067          	ret

00000578 <__umodsi3>:
 578:	00008293          	mv	t0,ra
 57c:	fb5ff0ef          	jal	530 <__hidden___udivsi3>
 580:	00058513          	mv	a0,a1
 584:	00028067          	jr	t0
 588:	40a00533          	neg	a0,a0
 58c:	00b04863          	bgtz	a1,59c <__umodsi3+0x24>
 590:	40b005b3          	neg	a1,a1
 594:	f9dff06f          	j	530 <__hidden___udivsi3>
 598:	40b005b3          	neg	a1,a1
 59c:	00008293          	mv	t0,ra
 5a0:	f91ff0ef          	jal	530 <__hidden___udivsi3>
 5a4:	40a00533          	neg	a0,a0
 5a8:	00028067          	jr	t0

000005ac <__modsi3>:
 5ac:	00008293          	mv	t0,ra
 5b0:	0005ca63          	bltz	a1,5c4 <__modsi3+0x18>
 5b4:	00054c63          	bltz	a0,5cc <__modsi3+0x20>
 5b8:	f79ff0ef          	jal	530 <__hidden___udivsi3>
 5bc:	00058513          	mv	a0,a1
 5c0:	00028067          	jr	t0
 5c4:	40b005b3          	neg	a1,a1
 5c8:	fe0558e3          	bgez	a0,5b8 <__modsi3+0xc>
 5cc:	40a00533          	neg	a0,a0
 5d0:	f61ff0ef          	jal	530 <__hidden___udivsi3>
 5d4:	40b00533          	neg	a0,a1
 5d8:	00028067          	jr	t0
